; Function Attrs: nounwind sspstrong uwtable
define internal i32 @get_case_fold_codes_by_str(i32 noundef %0, ptr noundef %1, ptr noundef %2, ptr noundef %3, ptr noundef %4) #0 {
  %6 = getelementptr inbounds nuw i8, ptr %1, i64 1
  %7 = load i8, ptr %1, align 1, !tbaa !6
  %8 = zext i8 %7 to i64
  %9 = getelementptr inbounds nuw [256 x i8], ptr @trans, i64 0, i64 %8
  %10 = load i8, ptr %9, align 1, !tbaa !6
  %11 = sext i8 %10 to i64
  %12 = icmp slt i8 %10, 0
  br i1 %12, label %13, label %15

13:                                               ; preds = %5
  %14 = icmp eq i8 %10, -1
  br i1 %14, label %mbc_to_code.exit.thread40, label %mbc_enc_len.exit.thread27.i

15:                                               ; preds = %5
  %16 = icmp eq ptr %6, %2
  br i1 %16, label %mbc_enc_len.exit.i, label %17

17:                                               ; preds = %15
  %18 = getelementptr inbounds nuw i8, ptr %1, i64 2
  %19 = load i8, ptr %6, align 1, !tbaa !6
  %20 = zext i8 %19 to i64
  %21 = getelementptr inbounds nuw [3 x [256 x i8]], ptr @trans, i64 0, i64 %11, i64 %20
  %22 = load i8, ptr %21, align 1, !tbaa !6
  %23 = sext i8 %22 to i64
  %24 = icmp slt i8 %22, 0
  br i1 %24, label %25, label %28

25:                                               ; preds = %17
  %26 = icmp eq i8 %22, -1
  %27 = select i1 %26, i32 2, i32 -1
  br label %mbc_enc_len.exit.thread27.i

28:                                               ; preds = %17
  %29 = icmp eq ptr %18, %2
  br i1 %29, label %mbc_enc_len.exit.i, label %30

30:                                               ; preds = %28
  %31 = load i8, ptr %18, align 1, !tbaa !6
  %32 = zext i8 %31 to i64
  %33 = getelementptr inbounds nuw [3 x [256 x i8]], ptr @trans, i64 0, i64 %23, i64 %32
  %34 = load i8, ptr %33, align 1, !tbaa !6
  %35 = icmp eq i8 %34, -1
  %36 = select i1 %35, i32 3, i32 -1
  br label %mbc_enc_len.exit.thread27.i

mbc_enc_len.exit.thread27.i:                      ; preds = %30, %25, %13
  %.0.i.ph.i = phi i32 [ %36, %30 ], [ %27, %25 ], [ -1, %13 ]
  %37 = zext i8 %7 to i32
  br label %.preheader.i

mbc_enc_len.exit.i:                               ; preds = %28, %15
  %.sink.i = phi i32 [ 0, %15 ], [ 1, %28 ]
  %38 = getelementptr inbounds nuw [256 x i32], ptr @EncLen_EUCJP, i64 0, i64 %8
  %39 = load i32, ptr %38, align 4, !tbaa !9
  %40 = sub nsw i32 %.sink.i, %39
  %41 = zext i8 %7 to i32
  %42 = icmp eq i32 %40, 1
  br i1 %42, label %mbc_to_code.exit.thread, label %.preheader.i

.preheader.i:                                     ; preds = %mbc_enc_len.exit.i, %mbc_enc_len.exit.thread27.i
  %43 = phi i32 [ %37, %mbc_enc_len.exit.thread27.i ], [ %41, %mbc_enc_len.exit.i ]
  %.0.i29.i = phi i32 [ %.0.i.ph.i, %mbc_enc_len.exit.thread27.i ], [ %40, %mbc_enc_len.exit.i ]
  %44 = icmp sgt i32 %.0.i29.i, 1
  %.not22.i = icmp ult ptr %6, %2
  %or.cond23.i = select i1 %44, i1 %.not22.i, i1 false
  br i1 %or.cond23.i, label %.lr.ph.i, label %mbc_to_code.exit

.lr.ph.i:                                         ; preds = %.preheader.i, %.lr.ph.i
  %.01826.i = phi ptr [ %.018.i, %.lr.ph.i ], [ %6, %.preheader.i ]
  %.025.i = phi i32 [ %48, %.lr.ph.i ], [ %43, %.preheader.i ]
  %.01724.i = phi i32 [ %49, %.lr.ph.i ], [ 1, %.preheader.i ]
  %45 = load i8, ptr %.01826.i, align 1, !tbaa !6
  %46 = zext i8 %45 to i32
  %47 = shl i32 %.025.i, 8
  %48 = or disjoint i32 %47, %46
  %49 = add nuw nsw i32 %.01724.i, 1
  %.018.i = getelementptr inbounds nuw i8, ptr %.01826.i, i64 1
  %50 = icmp slt i32 %49, %.0.i29.i
  %.not.i = icmp ult ptr %.018.i, %2
  %or.cond.i = select i1 %50, i1 %.not.i, i1 false
  br i1 %or.cond.i, label %.lr.ph.i, label %mbc_to_code.exit, !llvm.loop !11

mbc_to_code.exit:                                 ; preds = %.lr.ph.i, %.preheader.i
  %.016.i = phi i32 [ %43, %.preheader.i ], [ %48, %.lr.ph.i ]
  %51 = icmp ult i32 %.016.i, 128
  br i1 %51, label %55, label %57

mbc_to_code.exit.thread40:                        ; preds = %13
  %52 = zext i8 %7 to i32
  %53 = icmp sgt i8 %7, -1
  br i1 %53, label %55, label %.thread42

mbc_to_code.exit.thread:                          ; preds = %mbc_enc_len.exit.i
  %54 = icmp sgt i8 %7, -1
  br i1 %54, label %55, label %.thread

55:                                               ; preds = %mbc_to_code.exit.thread40, %mbc_to_code.exit.thread, %mbc_to_code.exit
  %56 = tail call i32 @onigenc_ascii_get_case_fold_codes_by_str(i32 noundef %0, ptr noundef nonnull %1, ptr noundef %2, ptr noundef %3, ptr noundef %4) #8
  br label %120

57:                                               ; preds = %mbc_to_code.exit
  br i1 %12, label %.thread42, label %.thread

.thread42:                                        ; preds = %mbc_to_code.exit.thread40, %57
  %.016.i3644 = phi i32 [ %.016.i, %57 ], [ %52, %mbc_to_code.exit.thread40 ]
  %58 = icmp eq i8 %10, -1
  %59 = select i1 %58, i32 1, i32 -1
  br label %mbc_enc_len.exit

.thread:                                          ; preds = %mbc_to_code.exit.thread, %57
  %.016.i3639 = phi i32 [ %.016.i, %57 ], [ %41, %mbc_to_code.exit.thread ]
  %60 = icmp eq ptr %6, %2
  br i1 %60, label %61, label %65

61:                                               ; preds = %.thread
  %62 = getelementptr inbounds nuw [256 x i32], ptr @EncLen_EUCJP, i64 0, i64 %8
  %63 = load i32, ptr %62, align 4, !tbaa !9
  %64 = sub nsw i32 0, %63
  br label %mbc_enc_len.exit

65:                                               ; preds = %.thread
  %66 = getelementptr inbounds nuw i8, ptr %1, i64 2
  %67 = load i8, ptr %6, align 1, !tbaa !6
  %68 = zext i8 %67 to i64
  %69 = getelementptr inbounds nuw [3 x [256 x i8]], ptr @trans, i64 0, i64 %11, i64 %68
  %70 = load i8, ptr %69, align 1, !tbaa !6
  %71 = sext i8 %70 to i64
  %72 = icmp slt i8 %70, 0
  br i1 %72, label %73, label %76

73:                                               ; preds = %65
  %74 = icmp eq i8 %70, -1
  %75 = select i1 %74, i32 2, i32 -1
  br label %mbc_enc_len.exit

76:                                               ; preds = %65
  %77 = icmp eq ptr %66, %2
  br i1 %77, label %78, label %82

78:                                               ; preds = %76
  %79 = getelementptr inbounds nuw [256 x i32], ptr @EncLen_EUCJP, i64 0, i64 %8
  %80 = load i32, ptr %79, align 4, !tbaa !9
  %81 = sub nsw i32 1, %80
  br label %mbc_enc_len.exit

82:                                               ; preds = %76
  %83 = load i8, ptr %66, align 1, !tbaa !6
  %84 = zext i8 %83 to i64
  %85 = getelementptr inbounds nuw [3 x [256 x i8]], ptr @trans, i64 0, i64 %71, i64 %84
  %86 = load i8, ptr %85, align 1, !tbaa !6
  %87 = icmp eq i8 %86, -1
  %88 = select i1 %87, i32 3, i32 -1
  br label %mbc_enc_len.exit

mbc_enc_len.exit:                                 ; preds = %.thread42, %61, %73, %78, %82
  %.016.i3638 = phi i32 [ %.016.i3644, %.thread42 ], [ %.016.i3639, %61 ], [ %.016.i3639, %73 ], [ %.016.i3639, %78 ], [ %.016.i3639, %82 ]
  %.0.i = phi i32 [ %59, %.thread42 ], [ %64, %61 ], [ %75, %73 ], [ %81, %78 ], [ %88, %82 ]
  %89 = add i32 %.016.i3638, -41921
  %90 = icmp ult i32 %89, 26
  br i1 %90, label %91, label %93

91:                                               ; preds = %mbc_enc_len.exit
  %92 = or disjoint i32 %.016.i3638, 32
  br label %.thread48

93:                                               ; preds = %mbc_enc_len.exit
  %94 = add i32 %.016.i3638, -42657
  %95 = icmp ult i32 %94, 24
  br i1 %95, label %96, label %get_lower_case.exit

96:                                               ; preds = %93
  %97 = add nuw nsw i32 %.016.i3638, 32
  br label %.thread48

get_lower_case.exit:                              ; preds = %93
  %98 = add i32 %.016.i3638, -42913
  %99 = icmp ult i32 %98, 33
  %100 = add nuw nsw i32 %.016.i3638, 48
  %spec.select.i = select i1 %99, i32 %100, i32 %.016.i3638
  %101 = add i32 %.016.i3638, -41953
  %102 = icmp ult i32 %101, 26
  br i1 %102, label %103, label %105

103:                                              ; preds = %get_lower_case.exit
  %104 = add nsw i32 %.016.i3638, -32
  br label %get_upper_case.exit

105:                                              ; preds = %get_lower_case.exit
  %106 = add i32 %.016.i3638, -42689
  %107 = icmp ult i32 %106, 24
  br i1 %107, label %108, label %.thread48

108:                                              ; preds = %105
  %109 = add nsw i32 %.016.i3638, -32
  br label %get_upper_case.exit

.thread48:                                        ; preds = %91, %96, %105
  %.0.i324750 = phi i32 [ %spec.select.i, %105 ], [ %97, %96 ], [ %92, %91 ]
  %110 = add i32 %.016.i3638, -42961
  %111 = icmp ult i32 %110, 33
  %112 = add nsw i32 %.016.i3638, -48
  %spec.select.i33 = select i1 %111, i32 %112, i32 %.016.i3638
  br label %get_upper_case.exit

get_upper_case.exit:                              ; preds = %103, %108, %.thread48
  %.0.i3246 = phi i32 [ %spec.select.i, %103 ], [ %spec.select.i, %108 ], [ %.0.i324750, %.thread48 ]
  %.0.i34 = phi i32 [ %104, %103 ], [ %109, %108 ], [ %spec.select.i33, %.thread48 ]
  %.not = icmp eq i32 %.016.i3638, %.0.i3246
  br i1 %.not, label %116, label %113

113:                                              ; preds = %get_upper_case.exit
  store i32 %.0.i, ptr %3, align 4, !tbaa !16
  %114 = getelementptr inbounds nuw i8, ptr %3, i64 4
  store i32 1, ptr %114, align 4, !tbaa !18
  %115 = getelementptr inbounds nuw i8, ptr %3, i64 8
  store i32 %.0.i3246, ptr %115, align 4, !tbaa !9
  br label %120

116:                                              ; preds = %get_upper_case.exit
  %.not31 = icmp eq i32 %.016.i3638, %.0.i34
  br i1 %.not31, label %120, label %117

117:                                              ; preds = %116
  store i32 %.0.i, ptr %3, align 4, !tbaa !16
  %118 = getelementptr inbounds nuw i8, ptr %3, i64 4
  store i32 1, ptr %118, align 4, !tbaa !18
  %119 = getelementptr inbounds nuw i8, ptr %3, i64 8
  store i32 %.0.i34, ptr %119, align 4, !tbaa !9
  br label %120

120:                                              ; preds = %116, %117, %113, %55
  %.0 = phi i32 [ %56, %55 ], [ 1, %113 ], [ 1, %117 ], [ 0, %116 ]
  ret i32 %.0
}